Certificate:
    Data:
        Version: 3 (0x2)
        Serial Number: 0 (0x0)
        Signature Algorithm: md5WithRSAEncryption
        Issuer: DC=gov, DC=fnal, O=Fermilab, OU=Certificate Authorities, CN=Kerberized CA
        Validity
            Not Before: Aug 25 20:08:17 2008 GMT
            Not After : Aug 26 20:08:17 2018 GMT
        Subject: DC=gov, DC=fnal, O=Fermilab, OU=Certificate Authorities, CN=Kerberized CA
        Subject Public Key Info:
            Public Key Algorithm: rsaEncryption
            RSA Public Key: (2048 bit)
                Modulus (2048 bit):
                    00:df:93:0b:ee:5e:94:b5:ba:d1:7e:db:54:8f:c5:
                    ef:b9:11:ed:16:68:23:a6:40:1e:03:b6:bd:e6:38:
                    8d:36:e6:bd:d5:71:c1:28:9c:a3:1f:53:af:92:7c:
                    1c:14:d4:0d:5f:7b:2c:bb:7b:ea:4a:6a:cd:ca:a0:
                    72:c2:15:3f:32:b6:4a:62:da:7b:13:ab:42:4e:3e:
                    53:f8:c2:83:73:51:cf:aa:01:89:eb:0e:68:33:96:
                    02:67:2d:b2:1e:8a:a0:9f:8d:a1:c6:78:c8:97:c3:
                    88:2e:ef:4d:c8:f5:19:54:dd:ab:f9:cb:ad:ce:90:
                    58:20:bb:95:c1:22:23:4f:bf:e7:c8:54:1a:6d:36:
                    bf:ac:2e:05:8e:82:9d:19:c7:ba:7d:09:05:04:39:
                    b2:e2:43:6f:4e:e7:1a:9b:2d:57:f5:fd:01:39:92:
                    94:3f:cc:54:a4:69:53:1f:46:88:34:88:c9:8d:92:
                    7b:65:37:8f:ba:11:6d:c9:90:28:b9:c7:ae:ab:a4:
                    7d:4f:d8:c2:f2:26:03:ad:ab:a3:5b:b2:de:2d:61:
                    7f:7c:55:25:43:0b:a9:36:7b:ba:54:6d:05:d1:a0:
                    a5:53:3c:e4:5d:18:f2:5f:47:ee:76:17:35:77:8b:
                    0b:05:47:9f:f9:e9:fe:ac:36:0a:fb:d8:7d:0a:e7:
                    d6:6b
                Exponent: 65537 (0x10001)
        X509v3 extensions:
            X509v3 Basic Constraints: 
            CA:TRUE, pathlen:0
            X509v3 Authority Key Identifier: 
            keyid:12:53:D0:9D:4C:D6:9E:BE:20:5A:2C:17:16:CE:32:E0:D5:76:6C:D8

            X509v3 Subject Key Identifier: 
            12:53:D0:9D:4C:D6:9E:BE:20:5A:2C:17:16:CE:32:E0:D5:76:6C:D8
            X509v3 Key Usage: critical
            Digital Signature, Certificate Sign, CRL Sign
            X509v3 Certificate Policies: 
            Policy: 1.3.6.1.4.14147.1.5.1
              CPS: http://computing.fnal.gov/security/docs/FNAL-CP-CPS.pdf
              User Notice:
                Organization: Fermilab
                Number: 1
                Explicit Text: Fermilab KCA Certificate Policy

    Signature Algorithm: md5WithRSAEncryption
        cc:26:98:6c:ff:73:03:63:7c:72:69:bb:bb:b3:62:88:3b:c9:
        f8:a3:55:a8:f5:ca:fe:5f:4c:9f:b5:e0:83:11:80:91:7b:6e:
        98:61:7a:61:7f:a0:41:8c:22:4e:77:8c:ac:89:ca:af:8d:5a:
        99:ce:f8:98:eb:a5:4f:b3:a2:28:8b:5f:e6:c5:00:f4:cc:6c:
        2f:45:1d:36:c5:24:2a:03:c4:04:db:39:1e:da:6e:30:30:f0:
        7c:2c:a0:ab:b1:c8:09:35:b6:66:4f:1c:51:e3:bb:16:6e:e0:
        73:1a:5f:3a:7d:5d:74:8d:6c:bb:9a:3d:59:92:26:d9:60:04:
        6e:ed:56:9c:43:9c:b2:95:5d:95:f3:78:7f:19:4d:63:37:a4:
        7e:6d:df:94:72:57:b1:a4:4d:a6:26:92:05:08:8a:b3:0d:d0:
        20:81:13:39:0b:52:c1:e3:ab:5c:33:98:b5:cf:aa:28:9a:a4:
        ae:e9:cc:39:6a:79:31:be:a7:5f:e7:ac:f2:ef:ac:8f:10:df:
        cf:81:1d:a5:e7:3d:38:fc:20:7d:e4:4d:43:f8:22:7d:d8:62:
        f5:13:ad:5d:1c:25:fd:0e:20:64:00:e9:fc:ec:e4:1c:61:13:
        19:c3:d6:a4:35:88:2f:d1:ee:72:ee:0f:62:de:b4:a2:50:57:
        e1:0b:02:21
-----BEGIN CERTIFICATE-----
MIIEdjCCA16gAwIBAgIBADANBgkqhkiG9w0BAQQFADB4MRMwEQYKCZImiZPyLGQB
GRMDZ292MRQwEgYKCZImiZPyLGQBGRMEZm5hbDERMA8GA1UEChMIRmVybWlsYWIx
IDAeBgNVBAsTF0NlcnRpZmljYXRlIEF1dGhvcml0aWVzMRYwFAYDVQQDEw1LZXJi
ZXJpemVkIENBMB4XDTA4MDgyNTIwMDgxN1oXDTE4MDgyNjIwMDgxN1oweDETMBEG
CgmSJomT8ixkARkTA2dvdjEUMBIGCgmSJomT8ixkARkTBGZuYWwxETAPBgNVBAoT
CEZlcm1pbGFiMSAwHgYDVQQLExdDZXJ0aWZpY2F0ZSBBdXRob3JpdGllczEWMBQG
A1UEAxMNS2VyYmVyaXplZCBDQTCCASIwDQYJKoZIhvcNAQEBBQADggEPADCCAQoC
ggEBAN+TC+5elLW60X7bVI/F77kR7RZoI6ZAHgO2veY4jTbmvdVxwSicox9Tr5J8
HBTUDV97LLt76kpqzcqgcsIVPzK2SmLaexOrQk4+U/jCg3NRz6oBiesOaDOWAmct
sh6KoJ+NocZ4yJfDiC7vTcj1GVTdq/nLrc6QWCC7lcEiI0+/58hUGm02v6wuBY6C
nRnHun0JBQQ5suJDb07nGpstV/X9ATmSlD/MVKRpUx9GiDSIyY2Se2U3j7oRbcmQ
KLnHrqukfU/YwvImA62ro1uy3i1hf3xVJUMLqTZ7ulRtBdGgpVM85F0Y8l9H7nYX
NXeLCwVHn/np/qw2CvvYfQrn1msCAwEAAaOCAQkwggEFMA8GA1UdEwQIMAYBAf8C
AQAwHwYDVR0jBBgwFoAUElPQnUzWnr4gWiwXFs4y4NV2bNgwHQYDVR0OBBYEFBJT
0J1M1p6+IFosFxbOMuDVdmzYMA4GA1UdDwEB/wQEAwIBhjCBoQYDVR0gBIGZMIGW
MIGTBgkrBgEE7kMBBQEwgYUwQwYIKwYBBQUHAgEWN2h0dHA6Ly9jb21wdXRpbmcu
Zm5hbC5nb3Yvc2VjdXJpdHkvZG9jcy9GTkFMLUNQLUNQUy5wZGYwPgYIKwYBBQUH
AgIwMjAPFghGZXJtaWxhYjADAgEBGh9GZXJtaWxhYiBLQ0EgQ2VydGlmaWNhdGUg
UG9saWN5MA0GCSqGSIb3DQEBBAUAA4IBAQDMJphs/3MDY3xyabu7s2KIO8n4o1Wo
9cr+X0yfteCDEYCRe26YYXphf6BBjCJOd4ysicqvjVqZzviY66VPs6Ioi1/mxQD0
zGwvRR02xSQqA8QE2zke2m4wMPB8LKCrscgJNbZmTxxR47sWbuBzGl86fV10jWy7
mj1ZkibZYARu7VacQ5yylV2V83h/GU1jN6R+bd+UclexpE2mJpIFCIqzDdAggRM5
C1LB46tcM5i1z6oomqSu6cw5ankxvqdf56zy76yPEN/PgR2l5z04/CB95E1D+CJ9
2GL1E61dHCX9DiBkAOn87OQcYRMZw9akNYgv0e5y7g9i3rSiUFfhCwIh
-----END CERTIFICATE-----
